; Function Attrs: null_pointer_is_valid sspstrong uwtable
define ptr @proto_get_protocol_filter_name(i32 noundef %0) local_unnamed_addr #0 {
  %2 = tail call ptr @find_protocol_by_id(i32 noundef %0)
  %3 = icmp eq ptr %2, null
  br i1 %3, label %7, label %4

4:                                                ; preds = %1
  %5 = getelementptr inbounds nuw i8, ptr %2, i64 16
  %6 = load ptr, ptr %5, align 8
  br label %7

7:                                                ; preds = %1, %4
  %.0 = phi ptr [ %6, %4 ], [ @.str.110, %1 ]
  ret ptr %.0
}